target datalayout = "e-m:e-p270:32:32-p271:32:32-p272:64:64-i64:64-i128:128-f80:128-n8:16:32:64-S128"
target triple = "x86_64-pc-linux-gnu"

%struct.FT_ListRec_ = type { ptr, ptr }
%struct.FT_FaceRec_ = type { i64, i64, i64, i64, i64, ptr, ptr, i32, ptr, i32, ptr, %struct.FT_Generic_, %struct.FT_BBox_, i16, i16, i16, i16, i16, i16, i16, i16, ptr, ptr, ptr, ptr, ptr, ptr, %struct.FT_ListRec_, %struct.FT_Generic_, ptr, ptr }
%struct.FT_BBox_ = type { i64, i64, i64, i64 }
%struct.FT_Generic_ = type { ptr, ptr }
%struct.CID_FaceRec_ = type { %struct.FT_FaceRec_, ptr, ptr, %struct.CID_FaceInfoRec_, %struct.PS_FontExtraRec_, ptr, ptr, ptr, ptr }
%struct.CID_FaceInfoRec_ = type { ptr, i64, i32, ptr, ptr, i32, %struct.PS_FontInfoRec_, %struct.FT_BBox_, i64, i32, [16 x i64], i64, i32, i32, i64, i32, ptr, i64 }
%struct.PS_FontInfoRec_ = type { ptr, ptr, ptr, ptr, ptr, i64, i8, i16, i16 }
%struct.PS_FontExtraRec_ = type { i16 }
%struct.FT_StreamRec_ = type { ptr, i64, i64, %union.FT_StreamDesc_, %union.FT_StreamDesc_, ptr, ptr, ptr, ptr, ptr }
%union.FT_StreamDesc_ = type { i64 }

; Function Attrs: nounwind uwtable
define internal i64 @cid_get_offset(ptr noundef %0, i32 noundef %1) #0 {
  %3 = alloca ptr, align 8
  %4 = alloca i32, align 4
  %5 = alloca i64, align 8
  %6 = alloca ptr, align 8
  store ptr %0, ptr %3, align 8
  store i32 %1, ptr %4, align 4
  %7 = load ptr, ptr %3, align 8
  %8 = load ptr, ptr %7, align 8
  store ptr %8, ptr %6, align 8
  store i64 0, ptr %5, align 8
  br label %9

9:                                                ; preds = %21, %2
  %10 = load i32, ptr %4, align 4
  %11 = icmp ugt i32 %10, 0
  br i1 %11, label %12, label %24

12:                                               ; preds = %9
  %13 = load i64, ptr %5, align 8
  %14 = shl i64 %13, 8
  store i64 %14, ptr %5, align 8
  %15 = load ptr, ptr %6, align 8
  %16 = getelementptr inbounds i8, ptr %15, i32 1
  store ptr %16, ptr %6, align 8
  %17 = load i8, ptr %15, align 1
  %18 = zext i8 %17 to i64
  %19 = load i64, ptr %5, align 8
  %20 = or i64 %19, %18
  store i64 %20, ptr %5, align 8
  br label %21

21:                                               ; preds = %12
  %22 = load i32, ptr %4, align 4
  %23 = add i32 %22, -1
  store i32 %23, ptr %4, align 4
  br label %9, !llvm.loop !8

24:                                               ; preds = %9
  %25 = load ptr, ptr %6, align 8
  %26 = load ptr, ptr %3, align 8
  store ptr %25, ptr %26, align 8
  %27 = load i64, ptr %5, align 8
  ret i64 %27
}

; Function Attrs: nounwind uwtable
define internal i32 @cid_compute_fd_and_offsets(ptr noundef %0, i32 noundef %1, ptr noundef %2, ptr noundef %3, ptr noundef %4) #0 {
  %6 = alloca ptr, align 8
  %7 = alloca i32, align 4
  %8 = alloca ptr, align 8
  %9 = alloca ptr, align 8
  %10 = alloca ptr, align 8
  %11 = alloca i32, align 4
  %12 = alloca ptr, align 8
  %13 = alloca ptr, align 8
  %14 = alloca i32, align 4
  %15 = alloca ptr, align 8
  %16 = alloca i8, align 1
  %17 = alloca i64, align 8
  %18 = alloca i64, align 8
  %19 = alloca i64, align 8
  store ptr %0, ptr %6, align 8
  store i32 %1, ptr %7, align 4
  store ptr %2, ptr %8, align 8
  store ptr %3, ptr %9, align 8
  store ptr %4, ptr %10, align 8
  store i32 0, ptr %11, align 4
  %20 = load ptr, ptr %6, align 8
  %21 = getelementptr inbounds %struct.CID_FaceRec_, ptr %20, i32 0, i32 3
  store ptr %21, ptr %12, align 8
  %22 = load ptr, ptr %6, align 8
  %23 = getelementptr inbounds %struct.CID_FaceRec_, ptr %22, i32 0, i32 8
  %24 = load ptr, ptr %23, align 8
  store ptr %24, ptr %13, align 8
  %25 = load ptr, ptr %12, align 8
  %26 = getelementptr inbounds %struct.CID_FaceInfoRec_, ptr %25, i32 0, i32 12
  %27 = load i32, ptr %26, align 8
  %28 = load ptr, ptr %12, align 8
  %29 = getelementptr inbounds %struct.CID_FaceInfoRec_, ptr %28, i32 0, i32 13
  %30 = load i32, ptr %29, align 4
  %31 = add i32 %27, %30
  store i32 %31, ptr %14, align 4
  store i8 0, ptr %16, align 1
  %32 = load ptr, ptr %13, align 8
  %33 = load ptr, ptr %12, align 8
  %34 = getelementptr inbounds %struct.CID_FaceInfoRec_, ptr %33, i32 0, i32 17
  %35 = load i64, ptr %34, align 8
  %36 = load ptr, ptr %12, align 8
  %37 = getelementptr inbounds %struct.CID_FaceInfoRec_, ptr %36, i32 0, i32 11
  %38 = load i64, ptr %37, align 8
  %39 = add i64 %35, %38
  %40 = load i32, ptr %7, align 4
  %41 = load i32, ptr %14, align 4
  %42 = mul i32 %40, %41
  %43 = zext i32 %42 to i64
  %44 = add i64 %39, %43
  %45 = call i32 @FT_Stream_Seek(ptr noundef %32, i64 noundef %44)
  store i32 %45, ptr %11, align 4
  %46 = icmp ne i32 %45, 0
  br i1 %46, label %54, label %47

47:                                               ; preds = %5
  %48 = load ptr, ptr %13, align 8
  %49 = load i32, ptr %14, align 4
  %50 = mul i32 2, %49
  %51 = zext i32 %50 to i64
  %52 = call i32 @FT_Stream_EnterFrame(ptr noundef %48, i64 noundef %51)
  store i32 %52, ptr %11, align 4
  %53 = icmp ne i32 %52, 0
  br i1 %53, label %54, label %55

54:                                               ; preds = %47, %5
  br label %159

55:                                               ; preds = %47
  store i8 1, ptr %16, align 1
  %56 = load ptr, ptr %13, align 8
  %57 = getelementptr inbounds %struct.FT_StreamRec_, ptr %56, i32 0, i32 8
  %58 = load ptr, ptr %57, align 8
  store ptr %58, ptr %15, align 8
  %59 = load ptr, ptr %12, align 8
  %60 = getelementptr inbounds %struct.CID_FaceInfoRec_, ptr %59, i32 0, i32 12
  %61 = load i32, ptr %60, align 8
  %62 = call i64 @cid_get_offset(ptr noundef %15, i32 noundef %61)
  store i64 %62, ptr %17, align 8
  %63 = load ptr, ptr %12, align 8
  %64 = getelementptr inbounds %struct.CID_FaceInfoRec_, ptr %63, i32 0, i32 13
  %65 = load i32, ptr %64, align 4
  %66 = call i64 @cid_get_offset(ptr noundef %15, i32 noundef %65)
  store i64 %66, ptr %18, align 8
  %67 = load ptr, ptr %12, align 8
  %68 = getelementptr inbounds %struct.CID_FaceInfoRec_, ptr %67, i32 0, i32 12
  %69 = load i32, ptr %68, align 8
  %70 = load ptr, ptr %15, align 8
  %71 = zext i32 %69 to i64
  %72 = getelementptr inbounds i8, ptr %70, i64 %71
  store ptr %72, ptr %15, align 8
  %73 = load ptr, ptr %12, align 8
  %74 = getelementptr inbounds %struct.CID_FaceInfoRec_, ptr %73, i32 0, i32 13
  %75 = load i32, ptr %74, align 4
  %76 = call i64 @cid_get_offset(ptr noundef %15, i32 noundef %75)
  store i64 %76, ptr %19, align 8
  %77 = load ptr, ptr %8, align 8
  %78 = icmp ne ptr %77, null
  br i1 %78, label %79, label %82

79:                                               ; preds = %55
  %80 = load i64, ptr %17, align 8
  %81 = load ptr, ptr %8, align 8
  store i64 %80, ptr %81, align 8
  br label %82

82:                                               ; preds = %79, %55
  %83 = load ptr, ptr %9, align 8
  %84 = icmp ne ptr %83, null
  br i1 %84, label %85, label %88

85:                                               ; preds = %82
  %86 = load i64, ptr %18, align 8
  %87 = load ptr, ptr %9, align 8
  store i64 %86, ptr %87, align 8
  br label %88

88:                                               ; preds = %85, %82
  %89 = load ptr, ptr %10, align 8
  %90 = icmp ne ptr %89, null
  br i1 %90, label %91, label %94

91:                                               ; preds = %88
  %92 = load i64, ptr %19, align 8
  %93 = load ptr, ptr %10, align 8
  store i64 %92, ptr %93, align 8
  br label %94

94:                                               ; preds = %91, %88
  %95 = load i64, ptr %17, align 8
  %96 = load ptr, ptr %12, align 8
  %97 = getelementptr inbounds %struct.CID_FaceInfoRec_, ptr %96, i32 0, i32 15
  %98 = load i32, ptr %97, align 8
  %99 = zext i32 %98 to i64
  %100 = icmp uge i64 %95, %99
  br i1 %100, label %101, label %132

101:                                              ; preds = %94
  %102 = load ptr, ptr %12, align 8
  %103 = getelementptr inbounds %struct.CID_FaceInfoRec_, ptr %102, i32 0, i32 12
  %104 = load i32, ptr %103, align 8
  %105 = icmp eq i32 %104, 1
  br i1 %105, label %106, label %109

106:                                              ; preds = %101
  %107 = load i64, ptr %17, align 8
  %108 = icmp eq i64 %107, 255
  br i1 %108, label %117, label %109

109:                                              ; preds = %106, %101
  %110 = load ptr, ptr %12, align 8
  %111 = getelementptr inbounds %struct.CID_FaceInfoRec_, ptr %110, i32 0, i32 12
  %112 = load i32, ptr %111, align 8
  %113 = icmp eq i32 %112, 2
  br i1 %113, label %114, label %124

114:                                              ; preds = %109
  %115 = load i64, ptr %17, align 8
  %116 = icmp eq i64 %115, 65535
  br i1 %116, label %117, label %124

117:                                              ; preds = %114, %106
  br label %118

118:                                              ; preds = %117
  br label %119

119:                                              ; preds = %118
  br label %120

120:                                              ; preds = %119
  br label %121

121:                                              ; preds = %120
  br label %122

122:                                              ; preds = %121
  br label %123

123:                                              ; preds = %122
  br label %131

124:                                              ; preds = %114, %109
  br label %125

125:                                              ; preds = %124
  br label %126

126:                                              ; preds = %125
  br label %127

127:                                              ; preds = %126
  br label %128

128:                                              ; preds = %127
  br label %129

129:                                              ; preds = %128
  br label %130

130:                                              ; preds = %129
  br label %131

131:                                              ; preds = %130, %123
  store i32 9, ptr %11, align 4
  br label %159

132:                                              ; preds = %94
  %133 = load i64, ptr %19, align 8
  %134 = load ptr, ptr %13, align 8
  %135 = getelementptr inbounds %struct.FT_StreamRec_, ptr %134, i32 0, i32 1
  %136 = load i64, ptr %135, align 8
  %137 = icmp ugt i64 %133, %136
  br i1 %137, label %138, label %145

138:                                              ; preds = %132
  br label %139

139:                                              ; preds = %138
  br label %140

140:                                              ; preds = %139
  br label %141

141:                                              ; preds = %140
  br label %142

142:                                              ; preds = %141
  br label %143

143:                                              ; preds = %142
  br label %144

144:                                              ; preds = %143
  store i32 9, ptr %11, align 4
  br label %159

145:                                              ; preds = %132
  %146 = load i64, ptr %18, align 8
  %147 = load i64, ptr %19, align 8
  %148 = icmp ugt i64 %146, %147
  br i1 %148, label %149, label %156

149:                                              ; preds = %145
  br label %150

150:                                              ; preds = %149
  br label %151

151:                                              ; preds = %150
  br label %152

152:                                              ; preds = %151
  br label %153

153:                                              ; preds = %152
  br label %154

154:                                              ; preds = %153
  br label %155

155:                                              ; preds = %154
  store i32 9, ptr %11, align 4
  br label %156

156:                                              ; preds = %155, %145
  br label %157

157:                                              ; preds = %156
  br label %158

158:                                              ; preds = %157
  br label %159

159:                                              ; preds = %158, %144, %131, %54
  %160 = load i8, ptr %16, align 1
  %161 = icmp ne i8 %160, 0
  br i1 %161, label %162, label %164

162:                                              ; preds = %159
  %163 = load ptr, ptr %13, align 8
  call void @FT_Stream_ExitFrame(ptr noundef %163)
  br label %164

164:                                              ; preds = %162, %159
  %165 = load i32, ptr %11, align 4
  ret i32 %165
}