; Function Attrs: nounwind uwtable
define internal fastcc i32 @cid_compute_fd_and_offsets(ptr noundef readonly captures(none) %0, i32 noundef %1, ptr noundef writeonly %2, ptr noundef writeonly %3, ptr noundef writeonly %4) unnamed_addr #2 {
  %6 = getelementptr inbounds nuw i8, ptr %0, i64 624
  %7 = load ptr, ptr %6, align 8
  %8 = getelementptr inbounds nuw i8, ptr %0, i64 552
  %9 = load i32, ptr %8, align 8
  %10 = getelementptr inbounds nuw i8, ptr %0, i64 556
  %11 = load i32, ptr %10, align 4
  %12 = add i32 %11, %9
  %13 = getelementptr inbounds nuw i8, ptr %0, i64 584
  %14 = load i64, ptr %13, align 8
  %15 = getelementptr inbounds nuw i8, ptr %0, i64 544
  %16 = load i64, ptr %15, align 8
  %17 = add i64 %16, %14
  %18 = mul i32 %12, %1
  %19 = zext i32 %18 to i64
  %20 = add i64 %17, %19
  %21 = tail call i32 @FT_Stream_Seek(ptr noundef %7, i64 noundef %20) #13
  %.not = icmp eq i32 %21, 0
  br i1 %.not, label %22, label %69

22:                                               ; preds = %5
  %23 = shl i32 %12, 1
  %24 = zext i32 %23 to i64
  %25 = tail call i32 @FT_Stream_EnterFrame(ptr noundef %7, i64 noundef %24) #13
  %.not46 = icmp eq i32 %25, 0
  br i1 %.not46, label %26, label %69

26:                                               ; preds = %22
  %27 = getelementptr inbounds nuw i8, ptr %7, i64 64
  %28 = load ptr, ptr %27, align 8
  %29 = load i32, ptr %8, align 8
  %.not10.i = icmp eq i32 %29, 0
  br i1 %.not10.i, label %cid_get_offset.exit, label %.lr.ph.i

.lr.ph.i:                                         ; preds = %26, %.lr.ph.i
  %.013.i = phi ptr [ %31, %.lr.ph.i ], [ %28, %26 ]
  %.0812.i = phi i64 [ %34, %.lr.ph.i ], [ 0, %26 ]
  %.0911.i = phi i32 [ %35, %.lr.ph.i ], [ %29, %26 ]
  %30 = shl i64 %.0812.i, 8
  %31 = getelementptr inbounds nuw i8, ptr %.013.i, i64 1
  %32 = load i8, ptr %.013.i, align 1
  %33 = zext i8 %32 to i64
  %34 = or disjoint i64 %30, %33
  %35 = add i32 %.0911.i, -1
  %.not.i = icmp eq i32 %35, 0
  br i1 %.not.i, label %._crit_edge.loopexit.i, label %.lr.ph.i, !llvm.loop !13

._crit_edge.loopexit.i:                           ; preds = %.lr.ph.i
  %36 = zext i32 %29 to i64
  %scevgep.i = getelementptr i8, ptr %28, i64 %36
  br label %cid_get_offset.exit

cid_get_offset.exit:                              ; preds = %26, %._crit_edge.loopexit.i
  %.08.lcssa.i = phi i64 [ 0, %26 ], [ %34, %._crit_edge.loopexit.i ]
  %.0.lcssa.i = phi ptr [ %28, %26 ], [ %scevgep.i, %._crit_edge.loopexit.i ]
  %37 = load i32, ptr %10, align 4
  %.not10.i52 = icmp eq i32 %37, 0
  br i1 %.not10.i52, label %cid_get_offset.exit75, label %.lr.ph.i54

.lr.ph.i54:                                       ; preds = %cid_get_offset.exit, %.lr.ph.i54
  %.013.i55 = phi ptr [ %39, %.lr.ph.i54 ], [ %.0.lcssa.i, %cid_get_offset.exit ]
  %.0812.i56 = phi i64 [ %42, %.lr.ph.i54 ], [ 0, %cid_get_offset.exit ]
  %.0911.i57 = phi i32 [ %43, %.lr.ph.i54 ], [ %37, %cid_get_offset.exit ]
  %38 = shl i64 %.0812.i56, 8
  %39 = getelementptr inbounds nuw i8, ptr %.013.i55, i64 1
  %40 = load i8, ptr %.013.i55, align 1
  %41 = zext i8 %40 to i64
  %42 = or disjoint i64 %38, %41
  %43 = add i32 %.0911.i57, -1
  %.not.i58 = icmp eq i32 %43, 0
  br i1 %.not.i58, label %.lr.ph.preheader.i65, label %.lr.ph.i54, !llvm.loop !13

.lr.ph.preheader.i65:                             ; preds = %.lr.ph.i54
  %44 = zext i32 %37 to i64
  %scevgep.i60 = getelementptr i8, ptr %.0.lcssa.i, i64 %44
  %45 = zext i32 %29 to i64
  %46 = getelementptr inbounds nuw i8, ptr %scevgep.i60, i64 %45
  br label %.lr.ph.i66

.lr.ph.i66:                                       ; preds = %.lr.ph.i66, %.lr.ph.preheader.i65
  %.013.i67 = phi ptr [ %48, %.lr.ph.i66 ], [ %46, %.lr.ph.preheader.i65 ]
  %.0812.i68 = phi i64 [ %51, %.lr.ph.i66 ], [ 0, %.lr.ph.preheader.i65 ]
  %.0911.i69 = phi i32 [ %52, %.lr.ph.i66 ], [ %37, %.lr.ph.preheader.i65 ]
  %47 = shl i64 %.0812.i68, 8
  %48 = getelementptr inbounds nuw i8, ptr %.013.i67, i64 1
  %49 = load i8, ptr %.013.i67, align 1
  %50 = zext i8 %49 to i64
  %51 = or disjoint i64 %47, %50
  %52 = add i32 %.0911.i69, -1
  %.not.i70 = icmp eq i32 %52, 0
  br i1 %.not.i70, label %cid_get_offset.exit75, label %.lr.ph.i66, !llvm.loop !13

cid_get_offset.exit75:                            ; preds = %.lr.ph.i66, %cid_get_offset.exit
  %.08.lcssa.i6181 = phi i64 [ 0, %cid_get_offset.exit ], [ %42, %.lr.ph.i66 ]
  %.08.lcssa.i73 = phi i64 [ 0, %cid_get_offset.exit ], [ %51, %.lr.ph.i66 ]
  %.not47 = icmp eq ptr %2, null
  br i1 %.not47, label %54, label %53

53:                                               ; preds = %cid_get_offset.exit75
  store i64 %.08.lcssa.i, ptr %2, align 8
  br label %54

54:                                               ; preds = %53, %cid_get_offset.exit75
  %.not48 = icmp eq ptr %3, null
  br i1 %.not48, label %56, label %55

55:                                               ; preds = %54
  store i64 %.08.lcssa.i6181, ptr %3, align 8
  br label %56

56:                                               ; preds = %55, %54
  %.not49 = icmp eq ptr %4, null
  br i1 %.not49, label %58, label %57

57:                                               ; preds = %56
  store i64 %.08.lcssa.i73, ptr %4, align 8
  br label %58

58:                                               ; preds = %57, %56
  %59 = getelementptr inbounds nuw i8, ptr %0, i64 568
  %60 = load i32, ptr %59, align 8
  %61 = zext i32 %60 to i64
  %.not50 = icmp ult i64 %.08.lcssa.i, %61
  br i1 %.not50, label %62, label %68

62:                                               ; preds = %58
  %63 = getelementptr inbounds nuw i8, ptr %7, i64 8
  %64 = load i64, ptr %63, align 8
  %65 = icmp ugt i64 %.08.lcssa.i73, %64
  br i1 %65, label %68, label %66

66:                                               ; preds = %62
  %67 = icmp ugt i64 %.08.lcssa.i6181, %.08.lcssa.i73
  %spec.select = select i1 %67, i32 9, i32 0
  br label %68

68:                                               ; preds = %58, %62, %66
  %.0.ph = phi i32 [ %spec.select, %66 ], [ 9, %62 ], [ 9, %58 ]
  tail call void @FT_Stream_ExitFrame(ptr noundef %7) #13
  br label %69

69:                                               ; preds = %22, %5, %68
  %.085 = phi i32 [ %.0.ph, %68 ], [ %21, %5 ], [ %25, %22 ]
  ret i32 %.085
}